target datalayout = "e-m:e-p270:32:32-p271:32:32-p272:64:64-i64:64-i128:128-f80:128-n8:16:32:64-S128"
target triple = "x86_64-pc-linux-gnu"

%"class.OpenColorIO_v2_5dev::Renderer_ACES_RedMod03_Fwd" = type <{ %"class.OpenColorIO_v2_5dev::OpCPU", float, float, float, [4 x i8] }>
%"class.OpenColorIO_v2_5dev::OpCPU" = type { ptr }

@_ZTVN19OpenColorIO_v2_5dev5OpCPUE = external unnamed_addr constant { [8 x ptr] }, align 8

; Function Attrs: mustprogress nounwind uwtable
define linkonce_odr hidden void @_ZN19OpenColorIO_v2_5dev5OpCPUC2Ev(ptr noundef nonnull align 8 dereferenceable(8) %0) unnamed_addr #4 comdat align 2 {
  %2 = alloca ptr, align 8
  store ptr %0, ptr %2, align 8, !tbaa !24
  %3 = load ptr, ptr %2, align 8
  store ptr getelementptr inbounds inrange(-16, 48) ({ [8 x ptr] }, ptr @_ZTVN19OpenColorIO_v2_5dev5OpCPUE, i32 0, i32 0, i32 2), ptr %3, align 8, !tbaa !16
  ret void
}

; Function Attrs: mustprogress nounwind uwtable
define hidden void @_ZN19OpenColorIO_v2_5dev26Renderer_ACES_RedMod03_FwdC2ERSt10shared_ptrIKNS_19FixedFunctionOpDataEE(ptr noundef nonnull align 8 dereferenceable(20) %0, ptr noundef nonnull align 8 dereferenceable(16) %1) unnamed_addr #4 align 2 {
  %3 = alloca ptr, align 8
  %4 = alloca ptr, align 8
  store ptr %0, ptr %3, align 8, !tbaa !12
  store ptr %1, ptr %4, align 8, !tbaa !14
  %5 = load ptr, ptr %3, align 8
  %6 = getelementptr inbounds i8, ptr %5, i64 0
  call void @llvm.memset.p0.i64(ptr align 8 %6, i8 0, i64 8, i1 false)
  call void @_ZN19OpenColorIO_v2_5dev5OpCPUC2Ev(ptr noundef nonnull align 8 dereferenceable(8) %5) #3
  store ptr getelementptr inbounds inrange(-16, 48) ({ [8 x ptr] }, ptr @_ZTVN19OpenColorIO_v2_5dev26Renderer_ACES_RedMod03_FwdE, i32 0, i32 0, i32 2), ptr %5, align 8, !tbaa !16
  %7 = getelementptr inbounds nuw %"class.OpenColorIO_v2_5dev::Renderer_ACES_RedMod03_Fwd", ptr %5, i32 0, i32 1
  store float 0x3FC3333300000000, ptr %7, align 8, !tbaa !18
  %8 = getelementptr inbounds nuw %"class.OpenColorIO_v2_5dev::Renderer_ACES_RedMod03_Fwd", ptr %5, i32 0, i32 2
  store float 0x3F9EB851E0000000, ptr %8, align 4, !tbaa !22
  %9 = getelementptr inbounds nuw %"class.OpenColorIO_v2_5dev::Renderer_ACES_RedMod03_Fwd", ptr %5, i32 0, i32 3
  store float 0x3FFE8EC8A0000000, ptr %9, align 8, !tbaa !23
  ret void
}