; Function Attrs: mustprogress nofree norecurse nosync nounwind willreturn memory(argmem: write) uwtable
define hidden void @_ZN19OpenColorIO_v2_5dev26Renderer_ACES_RedMod03_FwdC2ERSt10shared_ptrIKNS_19FixedFunctionOpDataEE(ptr noundef nonnull writeonly align 8 captures(none) dereferenceable(20) initializes((0, 20)) %0, ptr nonnull readnone align 8 captures(none) %1) unnamed_addr #4 align 2 {
  store ptr getelementptr inbounds nuw inrange(-16, 48) (i8, ptr @_ZTVN19OpenColorIO_v2_5dev26Renderer_ACES_RedMod03_FwdE, i64 16), ptr %0, align 8, !tbaa !3
  %3 = getelementptr inbounds nuw i8, ptr %0, i64 8
  store float 0x3FC3333300000000, ptr %3, align 8, !tbaa !6
  %4 = getelementptr inbounds nuw i8, ptr %0, i64 12
  store float 0x3F9EB851E0000000, ptr %4, align 4, !tbaa !11
  %5 = getelementptr inbounds nuw i8, ptr %0, i64 16
  store float 0x3FFE8EC8A0000000, ptr %5, align 8, !tbaa !12
  ret void
}